target datalayout = "e-m:e-p270:32:32-p271:32:32-p272:64:64-i64:64-i128:128-f80:128-n8:16:32:64-S128"
target triple = "x86_64-pc-linux-gnu"

%struct.XML_Memory_Handling_Suite = type { ptr, ptr, ptr }
%struct.XML_ParserStruct = type { ptr, ptr, ptr, %struct.XML_Memory_Handling_Suite, ptr, ptr, ptr, i64, ptr, i64, i8, i32, ptr, ptr, ptr, ptr, ptr, ptr, ptr, ptr, ptr, ptr, ptr, ptr, ptr, ptr, ptr, ptr, ptr, ptr, ptr, ptr, ptr, ptr, ptr, ptr, ptr, ptr, %struct.INIT_ENCODING, ptr, ptr, i8, i8, ptr, ptr, ptr, ptr, %struct.prolog_state, ptr, i32, ptr, ptr, ptr, ptr, ptr, i8, i32, ptr, ptr, ptr, ptr, ptr, ptr, ptr, ptr, ptr, i8, i8, ptr, ptr, ptr, ptr, ptr, ptr, i32, i32, i32, ptr, ptr, i64, i8, %struct.position, %struct.STRING_POOL, %struct.STRING_POOL, ptr, i32, i8, ptr, %struct.XML_ParsingStatus, i64 }
%struct.INIT_ENCODING = type { %struct.encoding, ptr }
%struct.encoding = type { [3 x ptr], [2 x ptr], ptr, ptr, ptr, ptr, ptr, ptr, ptr, ptr, ptr, ptr, i32, i8, i8 }
%struct.prolog_state = type { ptr, i32, i32 }
%struct.position = type { i64, i64 }
%struct.STRING_POOL = type { ptr, ptr, ptr, ptr, ptr, ptr }
%struct.XML_ParsingStatus = type { i32, i8 }
%struct.DTD = type { %struct.HASH_TABLE, %struct.HASH_TABLE, %struct.HASH_TABLE, %struct.HASH_TABLE, %struct.STRING_POOL, %struct.STRING_POOL, i8, i8, i8, %struct.prefix, i8, ptr, i32, i32, i32, i32, ptr }
%struct.HASH_TABLE = type { ptr, i8, i64, i64, ptr }
%struct.prefix = type { ptr, ptr }
%struct.ELEMENT_TYPE = type { ptr, ptr, ptr, i32, i32, ptr }

; Function Attrs: nounwind uwtable
define internal i32 @setElementTypePrefix(ptr noundef %0, ptr noundef %1) #0 {
  %3 = alloca i32, align 4
  %4 = alloca ptr, align 8
  %5 = alloca ptr, align 8
  %6 = alloca ptr, align 8
  %7 = alloca ptr, align 8
  %8 = alloca ptr, align 8
  %9 = alloca ptr, align 8
  %10 = alloca i32, align 4
  store ptr %0, ptr %4, align 8, !tbaa !13
  store ptr %1, ptr %5, align 8, !tbaa !9
  call void @llvm.lifetime.start.p0(i64 8, ptr %6) #10
  %11 = load ptr, ptr %4, align 8, !tbaa !13
  %12 = getelementptr inbounds nuw %struct.XML_ParserStruct, ptr %11, i32 0, i32 68
  %13 = load ptr, ptr %12, align 8, !tbaa !41
  store ptr %13, ptr %6, align 8, !tbaa !9
  call void @llvm.lifetime.start.p0(i64 8, ptr %7) #10
  %14 = load ptr, ptr %5, align 8, !tbaa !9
  %15 = getelementptr inbounds nuw %struct.ELEMENT_TYPE, ptr %14, i32 0, i32 0
  %16 = load ptr, ptr %15, align 8, !tbaa !173
  store ptr %16, ptr %7, align 8, !tbaa !4
  br label %17

17:                                               ; preds = %130, %2
  %18 = load ptr, ptr %7, align 8, !tbaa !4
  %19 = load i8, ptr %18, align 1, !tbaa !10
  %20 = icmp ne i8 %19, 0
  br i1 %20, label %21, label %133

21:                                               ; preds = %17
  %22 = load ptr, ptr %7, align 8, !tbaa !4
  %23 = load i8, ptr %22, align 1, !tbaa !10
  %24 = sext i8 %23 to i32
  %25 = icmp eq i32 %24, 58
  br i1 %25, label %26, label %129

26:                                               ; preds = %21
  call void @llvm.lifetime.start.p0(i64 8, ptr %8) #10
  call void @llvm.lifetime.start.p0(i64 8, ptr %9) #10
  %27 = load ptr, ptr %5, align 8, !tbaa !9
  %28 = getelementptr inbounds nuw %struct.ELEMENT_TYPE, ptr %27, i32 0, i32 0
  %29 = load ptr, ptr %28, align 8, !tbaa !173
  store ptr %29, ptr %9, align 8, !tbaa !4
  br label %30

30:                                               ; preds = %60, %26
  %31 = load ptr, ptr %9, align 8, !tbaa !4
  %32 = load ptr, ptr %7, align 8, !tbaa !4
  %33 = icmp ne ptr %31, %32
  br i1 %33, label %34, label %63

34:                                               ; preds = %30
  %35 = load ptr, ptr %6, align 8, !tbaa !9
  %36 = getelementptr inbounds nuw %struct.DTD, ptr %35, i32 0, i32 4
  %37 = getelementptr inbounds nuw %struct.STRING_POOL, ptr %36, i32 0, i32 3
  %38 = load ptr, ptr %37, align 8, !tbaa !166
  %39 = load ptr, ptr %6, align 8, !tbaa !9
  %40 = getelementptr inbounds nuw %struct.DTD, ptr %39, i32 0, i32 4
  %41 = getelementptr inbounds nuw %struct.STRING_POOL, ptr %40, i32 0, i32 2
  %42 = load ptr, ptr %41, align 8, !tbaa !167
  %43 = icmp eq ptr %38, %42
  br i1 %43, label %44, label %50

44:                                               ; preds = %34
  %45 = load ptr, ptr %6, align 8, !tbaa !9
  %46 = getelementptr inbounds nuw %struct.DTD, ptr %45, i32 0, i32 4
  %47 = call zeroext i8 @poolGrow(ptr noundef %46)
  %48 = icmp ne i8 %47, 0
  br i1 %48, label %50, label %49

49:                                               ; preds = %44
  br i1 false, label %59, label %58

50:                                               ; preds = %44, %34
  %51 = load ptr, ptr %9, align 8, !tbaa !4
  %52 = load i8, ptr %51, align 1, !tbaa !10
  %53 = load ptr, ptr %6, align 8, !tbaa !9
  %54 = getelementptr inbounds nuw %struct.DTD, ptr %53, i32 0, i32 4
  %55 = getelementptr inbounds nuw %struct.STRING_POOL, ptr %54, i32 0, i32 3
  %56 = load ptr, ptr %55, align 8, !tbaa !166
  %57 = getelementptr inbounds nuw i8, ptr %56, i32 1
  store ptr %57, ptr %55, align 8, !tbaa !166
  store i8 %52, ptr %56, align 1, !tbaa !10
  br i1 true, label %59, label %58

58:                                               ; preds = %50, %49
  store i32 0, ptr %3, align 4
  store i32 1, ptr %10, align 4
  br label %127

59:                                               ; preds = %50, %49
  br label %60

60:                                               ; preds = %59
  %61 = load ptr, ptr %9, align 8, !tbaa !4
  %62 = getelementptr inbounds nuw i8, ptr %61, i32 1
  store ptr %62, ptr %9, align 8, !tbaa !4
  br label %30, !llvm.loop !350

63:                                               ; preds = %30
  %64 = load ptr, ptr %6, align 8, !tbaa !9
  %65 = getelementptr inbounds nuw %struct.DTD, ptr %64, i32 0, i32 4
  %66 = getelementptr inbounds nuw %struct.STRING_POOL, ptr %65, i32 0, i32 3
  %67 = load ptr, ptr %66, align 8, !tbaa !166
  %68 = load ptr, ptr %6, align 8, !tbaa !9
  %69 = getelementptr inbounds nuw %struct.DTD, ptr %68, i32 0, i32 4
  %70 = getelementptr inbounds nuw %struct.STRING_POOL, ptr %69, i32 0, i32 2
  %71 = load ptr, ptr %70, align 8, !tbaa !167
  %72 = icmp eq ptr %67, %71
  br i1 %72, label %73, label %79

73:                                               ; preds = %63
  %74 = load ptr, ptr %6, align 8, !tbaa !9
  %75 = getelementptr inbounds nuw %struct.DTD, ptr %74, i32 0, i32 4
  %76 = call zeroext i8 @poolGrow(ptr noundef %75)
  %77 = icmp ne i8 %76, 0
  br i1 %77, label %79, label %78

78:                                               ; preds = %73
  br i1 false, label %86, label %85

79:                                               ; preds = %73, %63
  %80 = load ptr, ptr %6, align 8, !tbaa !9
  %81 = getelementptr inbounds nuw %struct.DTD, ptr %80, i32 0, i32 4
  %82 = getelementptr inbounds nuw %struct.STRING_POOL, ptr %81, i32 0, i32 3
  %83 = load ptr, ptr %82, align 8, !tbaa !166
  %84 = getelementptr inbounds nuw i8, ptr %83, i32 1
  store ptr %84, ptr %82, align 8, !tbaa !166
  store i8 0, ptr %83, align 1, !tbaa !10
  br i1 true, label %86, label %85

85:                                               ; preds = %79, %78
  store i32 0, ptr %3, align 4
  store i32 1, ptr %10, align 4
  br label %127

86:                                               ; preds = %79, %78
  %87 = load ptr, ptr %4, align 8, !tbaa !13
  %88 = load ptr, ptr %6, align 8, !tbaa !9
  %89 = getelementptr inbounds nuw %struct.DTD, ptr %88, i32 0, i32 3
  %90 = load ptr, ptr %6, align 8, !tbaa !9
  %91 = getelementptr inbounds nuw %struct.DTD, ptr %90, i32 0, i32 4
  %92 = getelementptr inbounds nuw %struct.STRING_POOL, ptr %91, i32 0, i32 4
  %93 = load ptr, ptr %92, align 8, !tbaa !238
  %94 = call ptr @lookup(ptr noundef %87, ptr noundef %89, ptr noundef %93, i64 noundef 16)
  store ptr %94, ptr %8, align 8, !tbaa !163
  %95 = load ptr, ptr %8, align 8, !tbaa !163
  %96 = icmp ne ptr %95, null
  br i1 %96, label %98, label %97

97:                                               ; preds = %86
  store i32 0, ptr %3, align 4
  store i32 1, ptr %10, align 4
  br label %127

98:                                               ; preds = %86
  %99 = load ptr, ptr %8, align 8, !tbaa !163
  %100 = getelementptr inbounds nuw %struct.prefix, ptr %99, i32 0, i32 0
  %101 = load ptr, ptr %100, align 8, !tbaa !164
  %102 = load ptr, ptr %6, align 8, !tbaa !9
  %103 = getelementptr inbounds nuw %struct.DTD, ptr %102, i32 0, i32 4
  %104 = getelementptr inbounds nuw %struct.STRING_POOL, ptr %103, i32 0, i32 4
  %105 = load ptr, ptr %104, align 8, !tbaa !238
  %106 = icmp eq ptr %101, %105
  br i1 %106, label %107, label %115

107:                                              ; preds = %98
  %108 = load ptr, ptr %6, align 8, !tbaa !9
  %109 = getelementptr inbounds nuw %struct.DTD, ptr %108, i32 0, i32 4
  %110 = getelementptr inbounds nuw %struct.STRING_POOL, ptr %109, i32 0, i32 3
  %111 = load ptr, ptr %110, align 8, !tbaa !166
  %112 = load ptr, ptr %6, align 8, !tbaa !9
  %113 = getelementptr inbounds nuw %struct.DTD, ptr %112, i32 0, i32 4
  %114 = getelementptr inbounds nuw %struct.STRING_POOL, ptr %113, i32 0, i32 4
  store ptr %111, ptr %114, align 8, !tbaa !238
  br label %123

115:                                              ; preds = %98
  %116 = load ptr, ptr %6, align 8, !tbaa !9
  %117 = getelementptr inbounds nuw %struct.DTD, ptr %116, i32 0, i32 4
  %118 = getelementptr inbounds nuw %struct.STRING_POOL, ptr %117, i32 0, i32 4
  %119 = load ptr, ptr %118, align 8, !tbaa !238
  %120 = load ptr, ptr %6, align 8, !tbaa !9
  %121 = getelementptr inbounds nuw %struct.DTD, ptr %120, i32 0, i32 4
  %122 = getelementptr inbounds nuw %struct.STRING_POOL, ptr %121, i32 0, i32 3
  store ptr %119, ptr %122, align 8, !tbaa !166
  br label %123

123:                                              ; preds = %115, %107
  %124 = load ptr, ptr %8, align 8, !tbaa !163
  %125 = load ptr, ptr %5, align 8, !tbaa !9
  %126 = getelementptr inbounds nuw %struct.ELEMENT_TYPE, ptr %125, i32 0, i32 1
  store ptr %124, ptr %126, align 8, !tbaa !176
  store i32 2, ptr %10, align 4
  br label %127

127:                                              ; preds = %123, %97, %85, %58
  call void @llvm.lifetime.end.p0(i64 8, ptr %9) #10
  call void @llvm.lifetime.end.p0(i64 8, ptr %8) #10
  %128 = load i32, ptr %10, align 4
  switch i32 %128, label %134 [
    i32 2, label %133
  ]

129:                                              ; preds = %21
  br label %130

130:                                              ; preds = %129
  %131 = load ptr, ptr %7, align 8, !tbaa !4
  %132 = getelementptr inbounds nuw i8, ptr %131, i32 1
  store ptr %132, ptr %7, align 8, !tbaa !4
  br label %17, !llvm.loop !351

133:                                              ; preds = %127, %17
  store i32 1, ptr %3, align 4
  store i32 1, ptr %10, align 4
  br label %134

134:                                              ; preds = %133, %127
  call void @llvm.lifetime.end.p0(i64 8, ptr %7) #10
  call void @llvm.lifetime.end.p0(i64 8, ptr %6) #10
  %135 = load i32, ptr %3, align 4
  ret i32 %135
}