; Function Attrs: nounwind uwtable
define internal fastcc range(i32 0, 2) i32 @setElementTypePrefix(ptr noundef readonly captures(none) %0, ptr noundef nonnull captures(none) %1) unnamed_addr #0 {
  %3 = getelementptr inbounds nuw i8, ptr %0, i64 664
  %4 = load ptr, ptr %3, align 8, !tbaa !38
  %5 = load ptr, ptr %1, align 8, !tbaa !149
  br label %6

6:                                                ; preds = %45, %2
  %.033 = phi ptr [ %5, %2 ], [ %46, %45 ]
  %7 = load i8, ptr %.033, align 1, !tbaa !4
  switch i8 %7, label %45 [
    i8 0, label %.loopexit
    i8 58, label %.preheader
  ]

.preheader:                                       ; preds = %6
  %.not3743 = icmp eq ptr %5, %.033
  br i1 %.not3743, label %._crit_edge, label %.lr.ph

.lr.ph:                                           ; preds = %.preheader
  %8 = getelementptr inbounds nuw i8, ptr %4, i64 184
  %9 = getelementptr inbounds nuw i8, ptr %4, i64 176
  %10 = getelementptr inbounds nuw i8, ptr %4, i64 160
  br label %11

11:                                               ; preds = %.lr.ph, %17
  %.03144 = phi ptr [ %5, %.lr.ph ], [ %21, %17 ]
  %12 = load ptr, ptr %8, align 8, !tbaa !138
  %13 = load ptr, ptr %9, align 8, !tbaa !139
  %14 = icmp eq ptr %12, %13
  br i1 %14, label %15, label %17

15:                                               ; preds = %11
  %16 = tail call fastcc zeroext i8 @poolGrow(ptr noundef nonnull %10)
  %.not40 = icmp eq i8 %16, 0
  br i1 %.not40, label %.loopexit, label %._crit_edge47

._crit_edge47:                                    ; preds = %15
  %.pre = load ptr, ptr %8, align 8, !tbaa !138
  br label %17

17:                                               ; preds = %._crit_edge47, %11
  %18 = phi ptr [ %.pre, %._crit_edge47 ], [ %12, %11 ]
  %19 = load i8, ptr %.03144, align 1, !tbaa !4
  %20 = getelementptr inbounds nuw i8, ptr %18, i64 1
  store ptr %20, ptr %8, align 8, !tbaa !138
  store i8 %19, ptr %18, align 1, !tbaa !4
  %21 = getelementptr inbounds nuw i8, ptr %.03144, i64 1
  %.not37 = icmp eq ptr %21, %.033
  br i1 %.not37, label %._crit_edge, label %11, !llvm.loop !344

._crit_edge:                                      ; preds = %17, %.preheader
  %22 = getelementptr inbounds nuw i8, ptr %4, i64 184
  %23 = load ptr, ptr %22, align 8, !tbaa !138
  %24 = getelementptr inbounds nuw i8, ptr %4, i64 176
  %25 = load ptr, ptr %24, align 8, !tbaa !139
  %26 = icmp eq ptr %23, %25
  br i1 %26, label %27, label %30

27:                                               ; preds = %._crit_edge
  %28 = getelementptr inbounds nuw i8, ptr %4, i64 160
  %29 = tail call fastcc zeroext i8 @poolGrow(ptr noundef nonnull %28)
  %.not38 = icmp eq i8 %29, 0
  br i1 %.not38, label %.loopexit, label %._crit_edge48

._crit_edge48:                                    ; preds = %27
  %.pre49 = load ptr, ptr %22, align 8, !tbaa !138
  br label %30

30:                                               ; preds = %._crit_edge48, %._crit_edge
  %31 = phi ptr [ %.pre49, %._crit_edge48 ], [ %23, %._crit_edge ]
  %32 = getelementptr inbounds nuw i8, ptr %31, i64 1
  store ptr %32, ptr %22, align 8, !tbaa !138
  store i8 0, ptr %31, align 1, !tbaa !4
  %33 = getelementptr inbounds nuw i8, ptr %4, i64 120
  %34 = getelementptr inbounds nuw i8, ptr %4, i64 192
  %35 = load ptr, ptr %34, align 8, !tbaa !227
  %36 = tail call fastcc ptr @lookup(ptr noundef %0, ptr noundef nonnull %33, ptr noundef %35, i64 noundef 16)
  %.not39 = icmp eq ptr %36, null
  br i1 %.not39, label %.loopexit, label %37

37:                                               ; preds = %30
  %38 = load ptr, ptr %36, align 8, !tbaa !132
  %39 = load ptr, ptr %34, align 8, !tbaa !227
  %40 = icmp eq ptr %38, %39
  br i1 %40, label %41, label %43

41:                                               ; preds = %37
  %42 = load ptr, ptr %22, align 8, !tbaa !138
  store ptr %42, ptr %34, align 8, !tbaa !227
  br label %.critedge

43:                                               ; preds = %37
  store ptr %39, ptr %22, align 8, !tbaa !138
  br label %.critedge

.critedge:                                        ; preds = %43, %41
  %44 = getelementptr inbounds nuw i8, ptr %1, i64 8
  store ptr %36, ptr %44, align 8, !tbaa !152
  br label %.loopexit

45:                                               ; preds = %6
  %46 = getelementptr inbounds nuw i8, ptr %.033, i64 1
  br label %6, !llvm.loop !345

.loopexit:                                        ; preds = %6, %15, %.critedge, %27, %30
  %.1 = phi i32 [ 0, %30 ], [ 0, %27 ], [ 1, %.critedge ], [ 0, %15 ], [ 1, %6 ]
  ret i32 %.1
}